; Function Attrs: mustprogress uwtable
define hidden noundef zeroext i1 @_ZN6google8protobuf8internal10WireFormat19SkipMessageSetFieldEPNS0_2io16CodedInputStreamEjPNS0_15UnknownFieldSetE(ptr noundef %0, i32 noundef %1, ptr noundef %2) local_unnamed_addr #3 align 2 {
  %4 = load ptr, ptr %0, align 8, !tbaa !10
  %5 = getelementptr inbounds nuw i8, ptr %0, i64 8
  %6 = load ptr, ptr %5, align 8, !tbaa !18
  %7 = icmp ult ptr %4, %6
  br i1 %7, label %8, label %_ZN6google8protobuf2io16CodedInputStream12ReadVarint32EPj.exit, !prof !19

8:                                                ; preds = %3
  %9 = load i8, ptr %4, align 1, !tbaa !20
  %10 = zext i8 %9 to i32
  %11 = icmp sgt i8 %9, -1
  br i1 %11, label %_ZN6google8protobuf2io16CodedInputStream12ReadVarint32EPj.exit.thread, label %_ZN6google8protobuf2io16CodedInputStream12ReadVarint32EPj.exit

_ZN6google8protobuf2io16CodedInputStream12ReadVarint32EPj.exit.thread: ; preds = %8
  %12 = getelementptr inbounds nuw i8, ptr %4, i64 1
  store ptr %12, ptr %0, align 8, !tbaa !10
  br label %16

_ZN6google8protobuf2io16CodedInputStream12ReadVarint32EPj.exit: ; preds = %3, %8
  %.08.i = phi i32 [ %10, %8 ], [ 0, %3 ]
  %13 = tail call noundef i64 @_ZN6google8protobuf2io16CodedInputStream20ReadVarint32FallbackEj(ptr noundef nonnull align 8 dereferenceable(80) %0, i32 noundef %.08.i)
  %14 = trunc i64 %13 to i32
  %15 = icmp sgt i64 %13, -1
  br i1 %15, label %16, label %19

16:                                               ; preds = %_ZN6google8protobuf2io16CodedInputStream12ReadVarint32EPj.exit.thread, %_ZN6google8protobuf2io16CodedInputStream12ReadVarint32EPj.exit
  %.047 = phi i32 [ %10, %_ZN6google8protobuf2io16CodedInputStream12ReadVarint32EPj.exit.thread ], [ %14, %_ZN6google8protobuf2io16CodedInputStream12ReadVarint32EPj.exit ]
  %17 = tail call noundef ptr @_ZN6google8protobuf15UnknownFieldSet18AddLengthDelimitedB5cxx11Ei(ptr noundef nonnull align 8 dereferenceable(24) %2, i32 noundef %1)
  %18 = tail call noundef zeroext i1 @_ZN6google8protobuf2io16CodedInputStream10ReadStringEPNSt7__cxx1112basic_stringIcSt11char_traitsIcESaIcEEEi(ptr noundef nonnull align 8 dereferenceable(80) %0, ptr noundef %17, i32 noundef %.047)
  br label %19

19:                                               ; preds = %_ZN6google8protobuf2io16CodedInputStream12ReadVarint32EPj.exit, %16
  %.0 = phi i1 [ %18, %16 ], [ false, %_ZN6google8protobuf2io16CodedInputStream12ReadVarint32EPj.exit ]
  ret i1 %.0
}